; Function Attrs: nofree norecurse nosync nounwind memory(readwrite, inaccessiblemem: none) uwtable
define void @Tim_ManInitPoRequiredAll(ptr noundef readonly captures(none) %0, float noundef %1) local_unnamed_addr #1 {
  %3 = getelementptr inbounds nuw i8, ptr %0, i64 36
  %4 = load i32, ptr %3, align 4, !tbaa !21
  %5 = icmp sgt i32 %4, 0
  br i1 %5, label %.lr.ph, label %.critedge

.lr.ph:                                           ; preds = %2
  %6 = getelementptr inbounds nuw i8, ptr %0, i64 48
  %7 = load ptr, ptr %6, align 8, !tbaa !15
  %.not = icmp eq ptr %7, null
  %8 = getelementptr inbounds nuw i8, ptr %0, i64 24
  br i1 %.not, label %.critedge, label %.lr.ph.split.preheader

.lr.ph.split.preheader:                           ; preds = %.lr.ph
  %wide.trip.count = zext nneg i32 %4 to i64
  br label %.lr.ph.split

.lr.ph.split:                                     ; preds = %.lr.ph.split.preheader, %16
  %indvars.iv = phi i64 [ 0, %.lr.ph.split.preheader ], [ %indvars.iv.next, %16 ]
  %9 = getelementptr inbounds nuw %struct.Tim_Obj_t_, ptr %7, i64 %indvars.iv, i32 2
  %10 = load i32, ptr %9, align 4, !tbaa !18
  %11 = icmp sgt i32 %10, -1
  br i1 %11, label %16, label %12

12:                                               ; preds = %.lr.ph.split
  %13 = getelementptr inbounds nuw %struct.Tim_Obj_t_, ptr %7, i64 %indvars.iv, i32 5
  store float %1, ptr %13, align 4, !tbaa !16
  %14 = load i32, ptr %8, align 8, !tbaa !22
  %15 = getelementptr inbounds nuw %struct.Tim_Obj_t_, ptr %7, i64 %indvars.iv, i32 1
  store i32 %14, ptr %15, align 4, !tbaa !23
  br label %16

16:                                               ; preds = %12, %.lr.ph.split
  %indvars.iv.next = add nuw nsw i64 %indvars.iv, 1
  %exitcond.not = icmp eq i64 %indvars.iv.next, %wide.trip.count
  br i1 %exitcond.not, label %.critedge, label %.lr.ph.split, !llvm.loop !24

.critedge:                                        ; preds = %16, %.lr.ph, %2
  ret void
}